; Function Attrs: nounwind uwtable
define internal noundef nonnull ptr @request_virt_barray(ptr noundef %0, i32 noundef %1, i32 noundef %2, i32 noundef %3, i32 noundef %4, i32 noundef %5) #0 {
  %7 = getelementptr inbounds nuw i8, ptr %0, i64 8
  %8 = load ptr, ptr %7, align 8, !tbaa !3
  %.not = icmp eq i32 %1, 1
  br i1 %.not, label %.split, label %.split24

.split24:                                         ; preds = %6
  %9 = load ptr, ptr %0, align 8, !tbaa !14
  %10 = getelementptr inbounds nuw i8, ptr %9, i64 40
  store i32 14, ptr %10, align 8, !tbaa !15
  %11 = getelementptr inbounds nuw i8, ptr %9, i64 44
  store i32 %1, ptr %11, align 4, !tbaa !18
  %12 = load ptr, ptr %0, align 8, !tbaa !14
  %13 = load ptr, ptr %12, align 8, !tbaa !19
  tail call void %13(ptr noundef nonnull %0) #9
  br label %.split

.split:                                           ; preds = %6, %.split24
  %.sink = phi i32 [ %1, %.split24 ], [ 1, %6 ]
  %14 = tail call ptr @alloc_small(ptr noundef nonnull %0, i32 noundef %.sink, i64 noundef 152)
  store ptr null, ptr %14, align 8, !tbaa !78
  %15 = getelementptr inbounds nuw i8, ptr %14, i64 8
  store i32 %4, ptr %15, align 8, !tbaa !81
  %16 = getelementptr inbounds nuw i8, ptr %14, i64 12
  store i32 %3, ptr %16, align 4, !tbaa !82
  %17 = getelementptr inbounds nuw i8, ptr %14, i64 16
  store i32 %5, ptr %17, align 8, !tbaa !83
  %18 = getelementptr inbounds nuw i8, ptr %14, i64 36
  store i32 %2, ptr %18, align 4, !tbaa !84
  %19 = getelementptr inbounds nuw i8, ptr %14, i64 44
  store i32 0, ptr %19, align 4, !tbaa !85
  %20 = getelementptr inbounds nuw i8, ptr %8, i64 144
  %21 = load ptr, ptr %20, align 8, !tbaa !86
  %22 = getelementptr inbounds nuw i8, ptr %14, i64 48
  store ptr %21, ptr %22, align 8, !tbaa !87
  store ptr %14, ptr %20, align 8, !tbaa !86
  ret ptr %14
}